target datalayout = "e-m:e-p270:32:32-p271:32:32-p272:64:64-i64:64-i128:128-f80:128-n8:16:32:64-S128"
target triple = "x86_64-pc-linux-gnu"

@.str.1 = private unnamed_addr constant [4 x i8] c"CAN\00", align 1
@.str.2 = private unnamed_addr constant [8 x i8] c"FlexRay\00", align 1
@.str.3 = private unnamed_addr constant [4 x i8] c"LIN\00", align 1
@.str.4 = private unnamed_addr constant [9 x i8] c"Ethernet\00", align 1
@.str.5 = private unnamed_addr constant [5 x i8] c"WLAN\00", align 1

; Function Attrs: nounwind null_pointer_is_valid sspstrong uwtable
define hidden i32 @blf_get_xml_pkt_encap(ptr noundef %0, ptr noundef %1) #0 {
  %3 = alloca i32, align 4
  %4 = alloca ptr, align 8
  %5 = alloca ptr, align 8
  %6 = alloca i64, align 8
  %7 = alloca i32, align 4
  store ptr %0, ptr %4, align 8
  store ptr %1, ptr %5, align 8
  call void @llvm.lifetime.start.p0(i64 8, ptr %6) #13
  %8 = load ptr, ptr %4, align 8
  %9 = icmp eq ptr %8, null
  br i1 %9, label %17, label %10

10:                                               ; preds = %2
  %11 = load ptr, ptr %5, align 8
  %12 = icmp eq ptr %11, null
  br i1 %12, label %17, label %13

13:                                               ; preds = %10
  %14 = load ptr, ptr %5, align 8
  %15 = load ptr, ptr %4, align 8
  %16 = icmp ule ptr %14, %15
  br i1 %16, label %17, label %18

17:                                               ; preds = %13, %10, %2
  store i32 0, ptr %3, align 4
  store i32 1, ptr %7, align 4
  br label %54

18:                                               ; preds = %13
  %19 = load ptr, ptr %5, align 8
  %20 = load ptr, ptr %4, align 8
  %21 = ptrtoint ptr %19 to i64
  %22 = ptrtoint ptr %20 to i64
  %23 = sub i64 %21, %22
  store i64 %23, ptr %6, align 8
  %24 = load ptr, ptr %4, align 8
  %25 = load i64, ptr %6, align 8
  %26 = call i32 @strncmp(ptr noundef %24, ptr noundef @.str.1, i64 noundef %25) #15
  %27 = icmp eq i32 %26, 0
  br i1 %27, label %28, label %29

28:                                               ; preds = %18
  store i32 125, ptr %3, align 4
  store i32 1, ptr %7, align 4
  br label %54

29:                                               ; preds = %18
  %30 = load ptr, ptr %4, align 8
  %31 = load i64, ptr %6, align 8
  %32 = call i32 @strncmp(ptr noundef %30, ptr noundef @.str.2, i64 noundef %31) #15
  %33 = icmp eq i32 %32, 0
  br i1 %33, label %34, label %35

34:                                               ; preds = %29
  store i32 106, ptr %3, align 4
  store i32 1, ptr %7, align 4
  br label %54

35:                                               ; preds = %29
  %36 = load ptr, ptr %4, align 8
  %37 = load i64, ptr %6, align 8
  %38 = call i32 @strncmp(ptr noundef %36, ptr noundef @.str.3, i64 noundef %37) #15
  %39 = icmp eq i32 %38, 0
  br i1 %39, label %40, label %41

40:                                               ; preds = %35
  store i32 107, ptr %3, align 4
  store i32 1, ptr %7, align 4
  br label %54

41:                                               ; preds = %35
  %42 = load ptr, ptr %4, align 8
  %43 = load i64, ptr %6, align 8
  %44 = call i32 @strncmp(ptr noundef %42, ptr noundef @.str.4, i64 noundef %43) #15
  %45 = icmp eq i32 %44, 0
  br i1 %45, label %46, label %47

46:                                               ; preds = %41
  store i32 1, ptr %3, align 4
  store i32 1, ptr %7, align 4
  br label %54

47:                                               ; preds = %41
  %48 = load ptr, ptr %4, align 8
  %49 = load i64, ptr %6, align 8
  %50 = call i32 @strncmp(ptr noundef %48, ptr noundef @.str.5, i64 noundef %49) #15
  %51 = icmp eq i32 %50, 0
  br i1 %51, label %52, label %53

52:                                               ; preds = %47
  store i32 20, ptr %3, align 4
  store i32 1, ptr %7, align 4
  br label %54

53:                                               ; preds = %47
  store i32 -1, ptr %3, align 4
  store i32 1, ptr %7, align 4
  br label %54

54:                                               ; preds = %53, %52, %46, %40, %34, %28, %17
  call void @llvm.lifetime.end.p0(i64 8, ptr %6) #13
  %55 = load i32, ptr %3, align 4
  ret i32 %55
}