; Function Attrs: mustprogress nofree nounwind null_pointer_is_valid sspstrong willreturn memory(argmem: read) uwtable
define hidden range(i32 -1, 126) i32 @blf_get_xml_pkt_encap(ptr noundef %0, ptr noundef %1) local_unnamed_addr #6 {
  %3 = icmp ne ptr %0, null
  %.not = icmp ugt ptr %1, %0
  %or.cond19 = and i1 %3, %.not
  br i1 %or.cond19, label %4, label %22

4:                                                ; preds = %2
  %5 = ptrtoint ptr %1 to i64
  %6 = ptrtoint ptr %0 to i64
  %7 = sub i64 %5, %6
  %8 = tail call i32 @strncmp(ptr noundef nonnull %0, ptr noundef nonnull @.str.1, i64 noundef %7) #16
  %9 = icmp eq i32 %8, 0
  br i1 %9, label %22, label %10

10:                                               ; preds = %4
  %11 = tail call i32 @strncmp(ptr noundef nonnull %0, ptr noundef nonnull @.str.2, i64 noundef %7) #16
  %12 = icmp eq i32 %11, 0
  br i1 %12, label %22, label %13

13:                                               ; preds = %10
  %14 = tail call i32 @strncmp(ptr noundef nonnull %0, ptr noundef nonnull @.str.3, i64 noundef %7) #16
  %15 = icmp eq i32 %14, 0
  br i1 %15, label %22, label %16

16:                                               ; preds = %13
  %17 = tail call i32 @strncmp(ptr noundef nonnull %0, ptr noundef nonnull @.str.4, i64 noundef %7) #16
  %18 = icmp eq i32 %17, 0
  br i1 %18, label %22, label %19

19:                                               ; preds = %16
  %20 = tail call i32 @strncmp(ptr noundef nonnull %0, ptr noundef nonnull @.str.5, i64 noundef %7) #16
  %21 = icmp eq i32 %20, 0
  %. = select i1 %21, i32 20, i32 -1
  br label %22

22:                                               ; preds = %19, %16, %13, %10, %4, %2
  %.0 = phi i32 [ 0, %2 ], [ 125, %4 ], [ 106, %10 ], [ 107, %13 ], [ 1, %16 ], [ %., %19 ]
  ret i32 %.0
}